target datalayout = "e-m:e-p270:32:32-p271:32:32-p272:64:64-i64:64-i128:128-f80:128-n8:16:32:64-S128"
target triple = "x86_64-pc-linux-gnu"

%"class.Imath_3_2::Vec3" = type { float, float, float }
%"class.Imath_3_2::Matrix44" = type { [4 x [4 x float]] }

; Function Attrs: inlinehint mustprogress nounwind uwtable
define linkonce_odr hidden void @_ZNK9Imath_3_24Vec3IfEdvEf(ptr dead_on_unwind noalias writable sret(%"class.Imath_3_2::Vec3") align 4 %0, ptr noundef nonnull align 4 dereferenceable(12) %1, float noundef %2) #6 comdat align 2 {
  %4 = alloca ptr, align 8
  %5 = alloca ptr, align 8
  %6 = alloca float, align 4
  store ptr %0, ptr %4, align 8
  store ptr %1, ptr %5, align 8, !tbaa !14
  store float %2, ptr %6, align 4, !tbaa !8
  %7 = load ptr, ptr %5, align 8
  %8 = getelementptr inbounds nuw %"class.Imath_3_2::Vec3", ptr %7, i32 0, i32 0
  %9 = load float, ptr %8, align 4, !tbaa !16
  %10 = load float, ptr %6, align 4, !tbaa !8
  %11 = fdiv float %9, %10
  %12 = getelementptr inbounds nuw %"class.Imath_3_2::Vec3", ptr %7, i32 0, i32 1
  %13 = load float, ptr %12, align 4, !tbaa !18
  %14 = load float, ptr %6, align 4, !tbaa !8
  %15 = fdiv float %13, %14
  %16 = getelementptr inbounds nuw %"class.Imath_3_2::Vec3", ptr %7, i32 0, i32 2
  %17 = load float, ptr %16, align 4, !tbaa !19
  %18 = load float, ptr %6, align 4, !tbaa !8
  %19 = fdiv float %17, %18
  call void @_ZN9Imath_3_24Vec3IfEC2Efff(ptr noundef nonnull align 4 dereferenceable(12) %0, float noundef %11, float noundef %15, float noundef %19) #3
  ret void
}

; Function Attrs: inlinehint mustprogress nounwind uwtable
define linkonce_odr hidden void @_ZN9Imath_3_24Vec3IfEC2Efff(ptr noundef nonnull align 4 dereferenceable(12) %0, float noundef %1, float noundef %2, float noundef %3) unnamed_addr #6 comdat align 2 {
  %5 = alloca ptr, align 8
  %6 = alloca float, align 4
  %7 = alloca float, align 4
  %8 = alloca float, align 4
  store ptr %0, ptr %5, align 8, !tbaa !14
  store float %1, ptr %6, align 4, !tbaa !8
  store float %2, ptr %7, align 4, !tbaa !8
  store float %3, ptr %8, align 4, !tbaa !8
  %9 = load ptr, ptr %5, align 8
  %10 = getelementptr inbounds nuw %"class.Imath_3_2::Vec3", ptr %9, i32 0, i32 0
  %11 = load float, ptr %6, align 4, !tbaa !8
  store float %11, ptr %10, align 4, !tbaa !16
  %12 = getelementptr inbounds nuw %"class.Imath_3_2::Vec3", ptr %9, i32 0, i32 1
  %13 = load float, ptr %7, align 4, !tbaa !8
  store float %13, ptr %12, align 4, !tbaa !18
  %14 = getelementptr inbounds nuw %"class.Imath_3_2::Vec3", ptr %9, i32 0, i32 2
  %15 = load float, ptr %8, align 4, !tbaa !8
  store float %15, ptr %14, align 4, !tbaa !19
  ret void
}

; Function Attrs: inlinehint mustprogress nounwind uwtable
define linkonce_odr hidden noundef ptr @_ZN9Imath_3_28Matrix44IfEixEi(ptr noundef nonnull align 4 dereferenceable(64) %0, i32 noundef %1) #6 comdat align 2 {
  %3 = alloca ptr, align 8
  %4 = alloca i32, align 4
  store ptr %0, ptr %3, align 8, !tbaa !10
  store i32 %1, ptr %4, align 4, !tbaa !12
  %5 = load ptr, ptr %3, align 8
  %6 = getelementptr inbounds nuw %"class.Imath_3_2::Matrix44", ptr %5, i32 0, i32 0
  %7 = load i32, ptr %4, align 4, !tbaa !12
  %8 = sext i32 %7 to i64
  %9 = getelementptr inbounds [4 x [4 x float]], ptr %6, i64 0, i64 %8
  %10 = getelementptr inbounds [4 x float], ptr %9, i64 0, i64 0
  ret ptr %10
}

; Function Attrs: mustprogress uwtable
define void @_ZN7Imf_3_47RgbaYca9computeYwERKNS_14ChromaticitiesE(ptr dead_on_unwind noalias writable sret(%"class.Imath_3_2::Vec3") align 4 %0, ptr noundef nonnull align 4 dereferenceable(32) %1) #4 {
  %3 = alloca ptr, align 8
  %4 = alloca ptr, align 8
  %5 = alloca %"class.Imath_3_2::Matrix44", align 4
  %6 = alloca %"class.Imath_3_2::Vec3", align 4
  store ptr %0, ptr %3, align 8
  store ptr %1, ptr %4, align 8, !tbaa !3
  call void @llvm.lifetime.start.p0(i64 64, ptr %5) #3
  %7 = load ptr, ptr %4, align 8, !tbaa !3
  call void @_ZN7Imf_3_48RGBtoXYZERKNS_14ChromaticitiesEf(ptr dead_on_unwind writable sret(%"class.Imath_3_2::Matrix44") align 4 %5, ptr noundef nonnull align 4 dereferenceable(32) %7, float noundef 1.000000e+00)
  call void @llvm.lifetime.start.p0(i64 12, ptr %6) #3
  %8 = call noundef ptr @_ZN9Imath_3_28Matrix44IfEixEi(ptr noundef nonnull align 4 dereferenceable(64) %5, i32 noundef 0) #3
  %9 = getelementptr inbounds float, ptr %8, i64 1
  %10 = load float, ptr %9, align 4, !tbaa !8
  %11 = call noundef ptr @_ZN9Imath_3_28Matrix44IfEixEi(ptr noundef nonnull align 4 dereferenceable(64) %5, i32 noundef 1) #3
  %12 = getelementptr inbounds float, ptr %11, i64 1
  %13 = load float, ptr %12, align 4, !tbaa !8
  %14 = call noundef ptr @_ZN9Imath_3_28Matrix44IfEixEi(ptr noundef nonnull align 4 dereferenceable(64) %5, i32 noundef 2) #3
  %15 = getelementptr inbounds float, ptr %14, i64 1
  %16 = load float, ptr %15, align 4, !tbaa !8
  call void @_ZN9Imath_3_24Vec3IfEC2Efff(ptr noundef nonnull align 4 dereferenceable(12) %6, float noundef %10, float noundef %13, float noundef %16) #3
  %17 = call noundef ptr @_ZN9Imath_3_28Matrix44IfEixEi(ptr noundef nonnull align 4 dereferenceable(64) %5, i32 noundef 0) #3
  %18 = getelementptr inbounds float, ptr %17, i64 1
  %19 = load float, ptr %18, align 4, !tbaa !8
  %20 = call noundef ptr @_ZN9Imath_3_28Matrix44IfEixEi(ptr noundef nonnull align 4 dereferenceable(64) %5, i32 noundef 1) #3
  %21 = getelementptr inbounds float, ptr %20, i64 1
  %22 = load float, ptr %21, align 4, !tbaa !8
  %23 = fadd float %19, %22
  %24 = call noundef ptr @_ZN9Imath_3_28Matrix44IfEixEi(ptr noundef nonnull align 4 dereferenceable(64) %5, i32 noundef 2) #3
  %25 = getelementptr inbounds float, ptr %24, i64 1
  %26 = load float, ptr %25, align 4, !tbaa !8
  %27 = fadd float %23, %26
  call void @_ZNK9Imath_3_24Vec3IfEdvEf(ptr dead_on_unwind writable sret(%"class.Imath_3_2::Vec3") align 4 %0, ptr noundef nonnull align 4 dereferenceable(12) %6, float noundef %27) #3
  call void @llvm.lifetime.end.p0(i64 12, ptr %6) #3
  call void @llvm.lifetime.end.p0(i64 64, ptr %5) #3
  ret void
}