; Function Attrs: mustprogress uwtable
define void @_ZN7Imf_3_47RgbaYca9computeYwERKNS_14ChromaticitiesE(ptr dead_on_unwind noalias writable writeonly sret(%"class.Imath_3_2::Vec3") align 4 captures(none) initializes((0, 12)) %0, ptr noundef nonnull align 4 dereferenceable(32) %1) local_unnamed_addr #3 {
  %3 = alloca %"class.Imath_3_2::Matrix44", align 4
  call void @llvm.lifetime.start.p0(i64 64, ptr nonnull %3) #10
  call void @_ZN7Imf_3_48RGBtoXYZERKNS_14ChromaticitiesEf(ptr dead_on_unwind nonnull writable sret(%"class.Imath_3_2::Matrix44") align 4 %3, ptr noundef nonnull align 4 dereferenceable(32) %1, float noundef 1.000000e+00)
  %4 = getelementptr inbounds nuw i8, ptr %3, i64 4
  %5 = load float, ptr %4, align 4, !tbaa !3
  %6 = getelementptr inbounds nuw i8, ptr %3, i64 20
  %7 = load float, ptr %6, align 4, !tbaa !3
  %8 = getelementptr inbounds nuw i8, ptr %3, i64 36
  %9 = load float, ptr %8, align 4, !tbaa !3
  %10 = fadd float %5, %7
  %11 = fadd float %10, %9
  %12 = fdiv float %5, %11
  %13 = fdiv float %7, %11
  %14 = fdiv float %9, %11
  store float %12, ptr %0, align 4, !tbaa !7, !alias.scope !9
  %15 = getelementptr inbounds nuw i8, ptr %0, i64 4
  store float %13, ptr %15, align 4, !tbaa !12, !alias.scope !9
  %16 = getelementptr inbounds nuw i8, ptr %0, i64 8
  store float %14, ptr %16, align 4, !tbaa !13, !alias.scope !9
  call void @llvm.lifetime.end.p0(i64 64, ptr nonnull %3) #10
  ret void
}